(lp0
((S'all_months'
p1
I0
I23
tp2
I3042648
tp3
a((S'all_months'
p4
I5
I5
tp5
I880931
tp6
a((S'all_months'
p7
I6
I16
tp8
I3861737
tp9
a((S'all_months'
p10
I5
I14
tp11
I4496878
tp12
a((S'all_months'
p13
I1
I11
tp14
I4018540
tp15
a((S'all_months'
p16
I6
I11
tp17
I4022890
tp18
a((S'all_months'
p19
I5
I23
tp20
I5562074
tp21
a((S'all_months'
p22
I1
I4
tp23
I506359
tp24
a((S'all_months'
p25
I6
I2
tp26
I3865792
tp27
a((S'all_months'
p28
I1
I22
tp29
I4863177
tp30
a((S'all_months'
p31
I6
I5
tp32
I915788
tp33
a((S'all_months'
p34
I2
I2
tp35
I930027
tp36
a((S'all_months'
p37
I2
I20
tp38
I5522096
tp39
a((S'all_months'
p40
I2
I13
tp41
I4235793
tp42
a((S'all_months'
p43
I3
I11
tp44
I4134482
tp45
a((S'all_months'
p46
I3
I0
tp47
I2858819
tp48
a((S'all_months'
p49
I3
I23
tp50
I4876955
tp51
a((S'all_months'
p52
I4
I2
tp53
I1655884
tp54
a((S'all_months'
p55
I4
I9
tp56
I4439345
tp57
a((S'all_months'
p58
I0
I12
tp59
I3854324
tp60
a((S'all_months'
p61
I0
I2
tp62
I760900
tp63
a((S'all_months'
p64
I4
I16
tp65
I3410304
tp66
a((S'all_months'
p67
I0
I11
tp68
I3690681
tp69
a((S'all_months'
p70
I4
I23
tp71
I5501162
tp72
a((S'all_months'
p73
I0
I16
tp74
I3611603
tp75
a((S'all_months'
p76
I5
I3
tp77
I2700524
tp78
a((S'all_months'
p79
I5
I13
tp80
I4635367
tp81
a((S'all_months'
p82
I1
I10
tp83
I4063265
tp84
a((S'all_months'
p85
I5
I4
tp86
I1744955
tp87
a((S'all_months'
p88
I6
I8
tp89
I1721267
tp90
a((S'all_months'
p91
I6
I17
tp92
I4144203
tp93
a((S'all_months'
p94
I5
I22
tp95
I5338807
tp96
a((S'all_months'
p97
I1
I3
tp98
I505653
tp99
a((S'all_months'
p100
I6
I3
tp101
I3053076
tp102
a((S'all_months'
p103
I1
I21
tp104
I5326434
tp105
a((S'all_months'
p106
I2
I3
tp107
I625143
tp108
a((S'all_months'
p109
I2
I10
tp110
I4160331
tp111
a((S'all_months'
p112
I2
I21
tp113
I5529551
tp114
a((S'all_months'
p115
I3
I3
tp116
I730016
tp117
a((S'all_months'
p118
I3
I10
tp119
I4155755
tp120
a((S'all_months'
p121
I3
I17
tp122
I4236293
tp123
a((S'all_months'
p124
I3
I22
tp125
I5441996
tp126
a((S'all_months'
p127
I4
I10
tp128
I4085929
tp129
a((S'all_months'
p130
I0
I13
tp131
I3843140
tp132
a((S'all_months'
p133
I4
I3
tp134
I1112992
tp135
a((S'all_months'
p136
I4
I17
tp137
I4295296
tp138
a((S'all_months'
p139
I0
I4
tp140
I570896
tp141
a((S'all_months'
p142
I0
I3
tp143
I534411
tp144
a((S'all_months'
p145
I0
I17
tp146
I4335021
tp147
a((S'all_months'
p148
I5
I2
tp149
I3618369
tp150
a((S'all_months'
p151
I1
I9
tp152
I4539460
tp153
a((S'all_months'
p154
I5
I11
tp155
I4255844
tp156
a((S'all_months'
p157
I6
I22
tp158
I3369055
tp159
a((S'all_months'
p160
I5
I21
tp161
I4929201
tp162
a((S'all_months'
p163
I1
I2
tp164
I755466
tp165
a((S'all_months'
p166
I5
I12
tp167
I4562888
tp168
a((S'all_months'
p169
I6
I0
tp170
I5235515
tp171
a((S'all_months'
p172
I6
I9
tp173
I2543486
tp174
a((S'all_months'
p175
I1
I20
tp176
I5352292
tp177
a((S'all_months'
p178
I2
I0
tp179
I2484063
tp180
a((S'all_months'
p181
I2
I11
tp182
I4157541
tp183
a((S'all_months'
p184
I2
I18
tp185
I5389575
tp186
a((S'all_months'
p187
I3
I13
tp188
I4241667
tp189
a((S'all_months'
p190
I3
I2
tp191
I1108903
tp192
a((S'all_months'
p193
I3
I16
tp194
I3365779
tp195
a((S'all_months'
p196
I0
I14
tp197
I4103823
tp198
a((S'all_months'
p199
I4
I4
tp200
I888773
tp201
a((S'all_months'
p202
I4
I18
tp203
I5375315
tp204
a((S'all_months'
p205
I0
I5
tp206
I878667
tp207
a((S'all_months'
p208
I4
I11
tp209
I4122758
tp210
a((S'all_months'
p211
I0
I18
tp212
I5165330
tp213
a((S'all_months'
p214
I5
I1
tp215
I4393439
tp216
a((S'all_months'
p217
I5
I10
tp218
I3778741
tp219
a((S'all_months'
p220
I1
I15
tp221
I4156971
tp222
a((S'all_months'
p223
I6
I23
tp224
I2749347
tp225
a((S'all_months'
p226
I1
I1
tp227
I1204642
tp228
a((S'all_months'
p229
I5
I19
tp230
I5491877
tp231
a((S'all_months'
p232
I1
I8
tp233
I4772395
tp234
a((S'all_months'
p235
I6
I14
tp236
I4350840
tp237
a((S'all_months'
p238
I5
I20
tp239
I4961096
tp240
a((S'all_months'
p241
I6
I1
tp242
I4751457
tp243
a((S'all_months'
p244
I1
I19
tp245
I5551072
tp246
a((S'all_months'
p247
I2
I6
tp248
I2306972
tp249
a((S'all_months'
p250
I2
I8
tp251
I4862116
tp252
a((S'all_months'
p253
I2
I1
tp254
I1481712
tp255
a((S'all_months'
p256
I2
I19
tp257
I5718995
tp258
a((S'all_months'
p259
I3
I12
tp260
I4299662
tp261
a((S'all_months'
p262
I3
I5
tp263
I899444
tp264
a((S'all_months'
p265
I3
I19
tp266
I5728029
tp267
a((S'all_months'
p268
I4
I5
tp269
I965709
tp270
a((S'all_months'
p271
I0
I6
tp272
I2139891
tp273
a((S'all_months'
p274
I4
I12
tp275
I4239585
tp276
a((S'all_months'
p277
I0
I15
tp278
I4051050
tp279
a((S'all_months'
p280
I4
I19
tp281
I5811026
tp282
a((S'all_months'
p283
I0
I20
tp284
I4758819
tp285
a((S'all_months'
p286
I0
I19
tp287
I5116818
tp288
a((S'all_months'
p289
I5
I9
tp290
I3153125
tp291
a((S'all_months'
p292
I1
I14
tp293
I4371087
tp294
a((S'all_months'
p295
I5
I0
tp296
I5107366
tp297
a((S'all_months'
p298
I6
I20
tp299
I3793533
tp300
a((S'all_months'
p301
I5
I18
tp302
I5233736
tp303
a((S'all_months'
p304
I1
I7
tp305
I4021140
tp306
a((S'all_months'
p307
I6
I15
tp308
I4137752
tp309
a((S'all_months'
p310
I1
I0
tp311
I2022676
tp312
a((S'all_months'
p313
I6
I6
tp314
I899231
tp315
a((S'all_months'
p316
I1
I18
tp317
I5405376
tp318
a((S'all_months'
p319
I2
I7
tp320
I4115578
tp321
a((S'all_months'
p322
I2
I14
tp323
I4398961
tp324
a((S'all_months'
p325
I2
I16
tp326
I3436863
tp327
a((S'all_months'
p328
I2
I9
tp329
I4618566
tp330
a((S'all_months'
p331
I3
I15
tp332
I4125971
tp333
a((S'all_months'
p334
I3
I4
tp335
I653005
tp336
a((S'all_months'
p337
I3
I18
tp338
I5352395
tp339
a((S'all_months'
p340
I4
I6
tp341
I2218742
tp342
a((S'all_months'
p343
I4
I13
tp344
I4164084
tp345
a((S'all_months'
p346
I0
I8
tp347
I4228992
tp348
a((S'all_months'
p349
I4
I20
tp350
I5470381
tp351
a((S'all_months'
p352
I0
I7
tp353
I3563251
tp354
a((S'all_months'
p355
I0
I21
tp356
I4565793
tp357
a((S'all_months'
p358
I1
I13
tp359
I4125729
tp360
a((S'all_months'
p361
I5
I7
tp362
I1494659
tp363
a((S'all_months'
p364
I6
I18
tp365
I4436011
tp366
a((S'all_months'
p367
I5
I17
tp368
I4493053
tp369
a((S'all_months'
p370
I1
I6
tp371
I2283710
tp372
a((S'all_months'
p373
I5
I8
tp374
I2242739
tp375
a((S'all_months'
p376
I6
I12
tp377
I4356213
tp378
a((S'all_months'
p379
I6
I21
tp380
I3638182
tp381
a((S'all_months'
p382
I6
I7
tp383
I1166416
tp384
a((S'all_months'
p385
I1
I17
tp386
I4336774
tp387
a((S'all_months'
p388
I2
I4
tp389
I580322
tp390
a((S'all_months'
p391
I2
I15
tp392
I4145541
tp393
a((S'all_months'
p394
I2
I22
tp395
I5194254
tp396
a((S'all_months'
p397
I2
I17
tp398
I4311926
tp399
a((S'all_months'
p400
I3
I9
tp401
I4584538
tp402
a((S'all_months'
p403
I3
I7
tp404
I4098270
tp405
a((S'all_months'
p406
I3
I14
tp407
I4445558
tp408
a((S'all_months'
p409
I3
I21
tp410
I5667927
tp411
a((S'all_months'
p412
I4
I0
tp413
I3775848
tp414
a((S'all_months'
p415
I4
I14
tp416
I4435712
tp417
a((S'all_months'
p418
I0
I9
tp419
I4109247
tp420
a((S'all_months'
p421
I4
I7
tp422
I3827420
tp423
a((S'all_months'
p424
I4
I21
tp425
I5373944
tp426
a((S'all_months'
p427
I0
I0
tp428
I1912520
tp429
a((S'all_months'
p430
I0
I22
tp431
I4063909
tp432
a((S'all_months'
p433
I5
I6
tp434
I1037357
tp435
a((S'all_months'
p436
I6
I19
tp437
I4158433
tp438
a((S'all_months'
p439
I1
I5
tp440
I850032
tp441
a((S'all_months'
p442
I5
I15
tp443
I4472670
tp444
a((S'all_months'
p445
I1
I12
tp446
I4165388
tp447
a((S'all_months'
p448
I6
I10
tp449
I3459333
tp450
a((S'all_months'
p451
I5
I16
tp452
I3963279
tp453
a((S'all_months'
p454
I6
I4
tp455
I1965373
tp456
a((S'all_months'
p457
I6
I13
tp458
I4361307
tp459
a((S'all_months'
p460
I1
I23
tp461
I3774654
tp462
a((S'all_months'
p463
I1
I16
tp464
I3487588
tp465
a((S'all_months'
p466
I2
I12
tp467
I4310994
tp468
a((S'all_months'
p469
I2
I5
tp470
I864613
tp471
a((S'all_months'
p472
I2
I23
tp473
I4229939
tp474
a((S'all_months'
p475
I3
I8
tp476
I4812505
tp477
a((S'all_months'
p478
I3
I1
tp479
I1734904
tp480
a((S'all_months'
p481
I3
I6
tp482
I2322378
tp483
a((S'all_months'
p484
I3
I20
tp485
I5641671
tp486
a((S'all_months'
p487
I4
I1
tp488
I2496489
tp489
a((S'all_months'
p490
I0
I10
tp491
I3698943
tp492
a((S'all_months'
p493
I4
I8
tp494
I4584489
tp495
a((S'all_months'
p496
I4
I22
tp497
I5554842
tp498
a((S'all_months'
p499
I0
I1
tp500
I1159350
tp501
a((S'all_months'
p502
I4
I15
tp503
I4077630
tp504
a.