(lp0
((S'all_months'
p1
S'all_days'
p2
I2
tp3
I15043
tp4
a((S'all_months'
p5
S'all_days'
p6
I11
tp7
I7084
tp8
a((S'all_months'
p9
S'all_days'
p10
I21
tp11
I21643
tp12
a((S'all_months'
p13
S'all_days'
p14
I12
tp15
I7312
tp16
a((S'all_months'
p17
S'all_days'
p18
I1
tp19
I24287
tp20
a((S'all_months'
p21
S'all_days'
p22
I10
tp23
I6943
tp24
a((S'all_months'
p25
S'all_days'
p26
I19
tp27
I16617
tp28
a((S'all_months'
p29
S'all_days'
p30
I20
tp31
I19031
tp32
a((S'all_months'
p33
S'all_days'
p34
I9
tp35
I7428
tp36
a((S'all_months'
p37
S'all_days'
p38
I0
tp39
I34117
tp40
a((S'all_months'
p41
S'all_days'
p42
I18
tp43
I13233
tp44
a((S'all_months'
p45
S'all_days'
p46
I7
tp47
I7954
tp48
a((S'all_months'
p49
S'all_days'
p50
I17
tp51
I10169
tp52
a((S'all_months'
p53
S'all_days'
p54
I8
tp55
I8193
tp56
a((S'all_months'
p57
S'all_days'
p58
I6
tp59
I6419
tp60
a((S'all_months'
p61
S'all_days'
p62
I15
tp63
I7410
tp64
a((S'all_months'
p65
S'all_days'
p66
I16
tp67
I7162
tp68
a((S'all_months'
p69
S'all_days'
p70
I5
tp71
I4274
tp72
a((S'all_months'
p73
S'all_days'
p74
I14
tp75
I7565
tp76
a((S'all_months'
p77
S'all_days'
p78
I23
tp79
I44966
tp80
a((S'all_months'
p81
S'all_days'
p82
I3
tp83
I9032
tp84
a((S'all_months'
p85
S'all_days'
p86
I13
tp87
I7523
tp88
a((S'all_months'
p89
S'all_days'
p90
I4
tp91
I5908
tp92
a((S'all_months'
p93
S'all_days'
p94
I22
tp95
I31418
tp96
a.