(lp0
((S'all_months'
p1
S'all_days'
p2
I2
tp3
I542699
tp4
a((S'all_months'
p5
S'all_days'
p6
I11
tp7
I388757
tp8
a((S'all_months'
p9
S'all_days'
p10
I21
tp11
I703445
tp12
a((S'all_months'
p13
S'all_days'
p14
I12
tp15
I419320
tp16
a((S'all_months'
p17
S'all_days'
p18
I1
tp19
I646678
tp20
a((S'all_months'
p21
S'all_days'
p22
I10
tp23
I367490
tp24
a((S'all_months'
p25
S'all_days'
p26
I19
tp27
I629553
tp28
a((S'all_months'
p29
S'all_days'
p30
I20
tp31
I660900
tp32
a((S'all_months'
p33
S'all_days'
p34
I9
tp35
I370203
tp36
a((S'all_months'
p37
S'all_days'
p38
I0
tp39
I747395
tp40
a((S'all_months'
p41
S'all_days'
p42
I18
tp43
I553668
tp44
a((S'all_months'
p45
S'all_days'
p46
I7
tp47
I280246
tp48
a((S'all_months'
p49
S'all_days'
p50
I17
tp51
I438945
tp52
a((S'all_months'
p53
S'all_days'
p54
I8
tp55
I346698
tp56
a((S'all_months'
p57
S'all_days'
p58
I6
tp59
I185037
tp60
a((S'all_months'
p61
S'all_days'
p62
I15
tp63
I407473
tp64
a((S'all_months'
p65
S'all_days'
p66
I16
tp67
I348600
tp68
a((S'all_months'
p69
S'all_days'
p70
I5
tp71
I122846
tp72
a((S'all_months'
p73
S'all_days'
p74
I14
tp75
I436336
tp76
a((S'all_months'
p77
S'all_days'
p78
I23
tp79
I778764
tp80
a((S'all_months'
p81
S'all_days'
p82
I3
tp83
I400315
tp84
a((S'all_months'
p85
S'all_days'
p86
I13
tp87
I426054
tp88
a((S'all_months'
p89
S'all_days'
p90
I4
tp91
I240198
tp92
a((S'all_months'
p93
S'all_days'
p94
I22
tp95
I752835
tp96
a.